target datalayout = "e-m:e-p270:32:32-p271:32:32-p272:64:64-i64:64-i128:128-f80:128-n8:16:32:64-S128"
target triple = "x86_64-pc-linux-gnu"

%"class.ncnn::Pooling3D" = type { %"class.ncnn::Layer", i32, i32, i32, i32, i32, i32, i32, i32, i32, i32, i32, i32, i32, i32, i32, i32, i32, i32, i32, i32 }
%"class.ncnn::Layer" = type { ptr, i8, i8, i8, i8, i8, i8, i8, i8, i8, i8, i8, i8, i8, i8, i8, i8, i8, i8, i8, i8, i32, ptr, i32, %"class.std::__cxx11::basic_string", %"class.std::__cxx11::basic_string", %"class.std::vector", %"class.std::vector", %"class.std::vector.3", %"class.std::vector.3" }
%"class.std::__cxx11::basic_string" = type { %"struct.std::__cxx11::basic_string<char>::_Alloc_hider", i64, %union.anon }
%"struct.std::__cxx11::basic_string<char>::_Alloc_hider" = type { ptr }
%union.anon = type { i64, [8 x i8] }
%"class.std::vector" = type { %"struct.std::_Vector_base" }
%"struct.std::_Vector_base" = type { %"struct.std::_Vector_base<int, std::allocator<int>>::_Vector_impl" }
%"struct.std::_Vector_base<int, std::allocator<int>>::_Vector_impl" = type { %"struct.std::_Vector_base<int, std::allocator<int>>::_Vector_impl_data" }
%"struct.std::_Vector_base<int, std::allocator<int>>::_Vector_impl_data" = type { ptr, ptr, ptr }
%"class.std::vector.3" = type { %"struct.std::_Vector_base.4" }
%"struct.std::_Vector_base.4" = type { %"struct.std::_Vector_base<ncnn::Mat, std::allocator<ncnn::Mat>>::_Vector_impl" }
%"struct.std::_Vector_base<ncnn::Mat, std::allocator<ncnn::Mat>>::_Vector_impl" = type { %"struct.std::_Vector_base<ncnn::Mat, std::allocator<ncnn::Mat>>::_Vector_impl_data" }
%"struct.std::_Vector_base<ncnn::Mat, std::allocator<ncnn::Mat>>::_Vector_impl_data" = type { ptr, ptr, ptr }

; Function Attrs: mustprogress uwtable
define hidden noundef i32 @_ZN4ncnn9Pooling3D10load_paramERKNS_9ParamDictE(ptr noundef nonnull align 8 dereferenceable(288) %0, ptr noundef nonnull align 8 dereferenceable(16) %1) unnamed_addr #2 align 2 {
  %3 = alloca ptr, align 8
  %4 = alloca ptr, align 8
  store ptr %0, ptr %3, align 8, !tbaa !4
  store ptr %1, ptr %4, align 8, !tbaa !9
  %5 = load ptr, ptr %3, align 8
  %6 = load ptr, ptr %4, align 8, !tbaa !9
  %7 = call noundef i32 @_ZNK4ncnn9ParamDict3getEii(ptr noundef nonnull align 8 dereferenceable(16) %6, i32 noundef 0, i32 noundef 0)
  %8 = getelementptr inbounds nuw %"class.ncnn::Pooling3D", ptr %5, i32 0, i32 1
  store i32 %7, ptr %8, align 8, !tbaa !11
  %9 = load ptr, ptr %4, align 8, !tbaa !9
  %10 = call noundef i32 @_ZNK4ncnn9ParamDict3getEii(ptr noundef nonnull align 8 dereferenceable(16) %9, i32 noundef 1, i32 noundef 0)
  %11 = getelementptr inbounds nuw %"class.ncnn::Pooling3D", ptr %5, i32 0, i32 2
  store i32 %10, ptr %11, align 4, !tbaa !30
  %12 = load ptr, ptr %4, align 8, !tbaa !9
  %13 = getelementptr inbounds nuw %"class.ncnn::Pooling3D", ptr %5, i32 0, i32 2
  %14 = load i32, ptr %13, align 4, !tbaa !30
  %15 = call noundef i32 @_ZNK4ncnn9ParamDict3getEii(ptr noundef nonnull align 8 dereferenceable(16) %12, i32 noundef 11, i32 noundef %14)
  %16 = getelementptr inbounds nuw %"class.ncnn::Pooling3D", ptr %5, i32 0, i32 3
  store i32 %15, ptr %16, align 8, !tbaa !31
  %17 = load ptr, ptr %4, align 8, !tbaa !9
  %18 = getelementptr inbounds nuw %"class.ncnn::Pooling3D", ptr %5, i32 0, i32 2
  %19 = load i32, ptr %18, align 4, !tbaa !30
  %20 = call noundef i32 @_ZNK4ncnn9ParamDict3getEii(ptr noundef nonnull align 8 dereferenceable(16) %17, i32 noundef 21, i32 noundef %19)
  %21 = getelementptr inbounds nuw %"class.ncnn::Pooling3D", ptr %5, i32 0, i32 4
  store i32 %20, ptr %21, align 4, !tbaa !32
  %22 = load ptr, ptr %4, align 8, !tbaa !9
  %23 = call noundef i32 @_ZNK4ncnn9ParamDict3getEii(ptr noundef nonnull align 8 dereferenceable(16) %22, i32 noundef 2, i32 noundef 1)
  %24 = getelementptr inbounds nuw %"class.ncnn::Pooling3D", ptr %5, i32 0, i32 5
  store i32 %23, ptr %24, align 8, !tbaa !33
  %25 = load ptr, ptr %4, align 8, !tbaa !9
  %26 = getelementptr inbounds nuw %"class.ncnn::Pooling3D", ptr %5, i32 0, i32 5
  %27 = load i32, ptr %26, align 8, !tbaa !33
  %28 = call noundef i32 @_ZNK4ncnn9ParamDict3getEii(ptr noundef nonnull align 8 dereferenceable(16) %25, i32 noundef 12, i32 noundef %27)
  %29 = getelementptr inbounds nuw %"class.ncnn::Pooling3D", ptr %5, i32 0, i32 6
  store i32 %28, ptr %29, align 4, !tbaa !34
  %30 = load ptr, ptr %4, align 8, !tbaa !9
  %31 = getelementptr inbounds nuw %"class.ncnn::Pooling3D", ptr %5, i32 0, i32 5
  %32 = load i32, ptr %31, align 8, !tbaa !33
  %33 = call noundef i32 @_ZNK4ncnn9ParamDict3getEii(ptr noundef nonnull align 8 dereferenceable(16) %30, i32 noundef 22, i32 noundef %32)
  %34 = getelementptr inbounds nuw %"class.ncnn::Pooling3D", ptr %5, i32 0, i32 7
  store i32 %33, ptr %34, align 8, !tbaa !35
  %35 = load ptr, ptr %4, align 8, !tbaa !9
  %36 = call noundef i32 @_ZNK4ncnn9ParamDict3getEii(ptr noundef nonnull align 8 dereferenceable(16) %35, i32 noundef 3, i32 noundef 0)
  %37 = getelementptr inbounds nuw %"class.ncnn::Pooling3D", ptr %5, i32 0, i32 8
  store i32 %36, ptr %37, align 4, !tbaa !36
  %38 = load ptr, ptr %4, align 8, !tbaa !9
  %39 = getelementptr inbounds nuw %"class.ncnn::Pooling3D", ptr %5, i32 0, i32 8
  %40 = load i32, ptr %39, align 4, !tbaa !36
  %41 = call noundef i32 @_ZNK4ncnn9ParamDict3getEii(ptr noundef nonnull align 8 dereferenceable(16) %38, i32 noundef 14, i32 noundef %40)
  %42 = getelementptr inbounds nuw %"class.ncnn::Pooling3D", ptr %5, i32 0, i32 9
  store i32 %41, ptr %42, align 8, !tbaa !37
  %43 = load ptr, ptr %4, align 8, !tbaa !9
  %44 = getelementptr inbounds nuw %"class.ncnn::Pooling3D", ptr %5, i32 0, i32 8
  %45 = load i32, ptr %44, align 4, !tbaa !36
  %46 = call noundef i32 @_ZNK4ncnn9ParamDict3getEii(ptr noundef nonnull align 8 dereferenceable(16) %43, i32 noundef 13, i32 noundef %45)
  %47 = getelementptr inbounds nuw %"class.ncnn::Pooling3D", ptr %5, i32 0, i32 10
  store i32 %46, ptr %47, align 4, !tbaa !38
  %48 = load ptr, ptr %4, align 8, !tbaa !9
  %49 = getelementptr inbounds nuw %"class.ncnn::Pooling3D", ptr %5, i32 0, i32 10
  %50 = load i32, ptr %49, align 4, !tbaa !38
  %51 = call noundef i32 @_ZNK4ncnn9ParamDict3getEii(ptr noundef nonnull align 8 dereferenceable(16) %48, i32 noundef 15, i32 noundef %50)
  %52 = getelementptr inbounds nuw %"class.ncnn::Pooling3D", ptr %5, i32 0, i32 11
  store i32 %51, ptr %52, align 8, !tbaa !39
  %53 = load ptr, ptr %4, align 8, !tbaa !9
  %54 = getelementptr inbounds nuw %"class.ncnn::Pooling3D", ptr %5, i32 0, i32 8
  %55 = load i32, ptr %54, align 4, !tbaa !36
  %56 = call noundef i32 @_ZNK4ncnn9ParamDict3getEii(ptr noundef nonnull align 8 dereferenceable(16) %53, i32 noundef 23, i32 noundef %55)
  %57 = getelementptr inbounds nuw %"class.ncnn::Pooling3D", ptr %5, i32 0, i32 12
  store i32 %56, ptr %57, align 4, !tbaa !40
  %58 = load ptr, ptr %4, align 8, !tbaa !9
  %59 = getelementptr inbounds nuw %"class.ncnn::Pooling3D", ptr %5, i32 0, i32 12
  %60 = load i32, ptr %59, align 4, !tbaa !40
  %61 = call noundef i32 @_ZNK4ncnn9ParamDict3getEii(ptr noundef nonnull align 8 dereferenceable(16) %58, i32 noundef 16, i32 noundef %60)
  %62 = getelementptr inbounds nuw %"class.ncnn::Pooling3D", ptr %5, i32 0, i32 13
  store i32 %61, ptr %62, align 8, !tbaa !41
  %63 = load ptr, ptr %4, align 8, !tbaa !9
  %64 = call noundef i32 @_ZNK4ncnn9ParamDict3getEii(ptr noundef nonnull align 8 dereferenceable(16) %63, i32 noundef 4, i32 noundef 0)
  %65 = getelementptr inbounds nuw %"class.ncnn::Pooling3D", ptr %5, i32 0, i32 14
  store i32 %64, ptr %65, align 4, !tbaa !42
  %66 = load ptr, ptr %4, align 8, !tbaa !9
  %67 = call noundef i32 @_ZNK4ncnn9ParamDict3getEii(ptr noundef nonnull align 8 dereferenceable(16) %66, i32 noundef 5, i32 noundef 0)
  %68 = getelementptr inbounds nuw %"class.ncnn::Pooling3D", ptr %5, i32 0, i32 15
  store i32 %67, ptr %68, align 8, !tbaa !43
  %69 = load ptr, ptr %4, align 8, !tbaa !9
  %70 = call noundef i32 @_ZNK4ncnn9ParamDict3getEii(ptr noundef nonnull align 8 dereferenceable(16) %69, i32 noundef 6, i32 noundef 0)
  %71 = getelementptr inbounds nuw %"class.ncnn::Pooling3D", ptr %5, i32 0, i32 16
  store i32 %70, ptr %71, align 4, !tbaa !44
  %72 = load ptr, ptr %4, align 8, !tbaa !9
  %73 = call noundef i32 @_ZNK4ncnn9ParamDict3getEii(ptr noundef nonnull align 8 dereferenceable(16) %72, i32 noundef 7, i32 noundef 0)
  %74 = getelementptr inbounds nuw %"class.ncnn::Pooling3D", ptr %5, i32 0, i32 17
  store i32 %73, ptr %74, align 8, !tbaa !45
  %75 = load ptr, ptr %4, align 8, !tbaa !9
  %76 = call noundef i32 @_ZNK4ncnn9ParamDict3getEii(ptr noundef nonnull align 8 dereferenceable(16) %75, i32 noundef 8, i32 noundef 0)
  %77 = getelementptr inbounds nuw %"class.ncnn::Pooling3D", ptr %5, i32 0, i32 18
  store i32 %76, ptr %77, align 4, !tbaa !46
  %78 = load ptr, ptr %4, align 8, !tbaa !9
  %79 = getelementptr inbounds nuw %"class.ncnn::Pooling3D", ptr %5, i32 0, i32 18
  %80 = load i32, ptr %79, align 4, !tbaa !46
  %81 = call noundef i32 @_ZNK4ncnn9ParamDict3getEii(ptr noundef nonnull align 8 dereferenceable(16) %78, i32 noundef 18, i32 noundef %80)
  %82 = getelementptr inbounds nuw %"class.ncnn::Pooling3D", ptr %5, i32 0, i32 19
  store i32 %81, ptr %82, align 8, !tbaa !47
  %83 = load ptr, ptr %4, align 8, !tbaa !9
  %84 = getelementptr inbounds nuw %"class.ncnn::Pooling3D", ptr %5, i32 0, i32 18
  %85 = load i32, ptr %84, align 4, !tbaa !46
  %86 = call noundef i32 @_ZNK4ncnn9ParamDict3getEii(ptr noundef nonnull align 8 dereferenceable(16) %83, i32 noundef 28, i32 noundef %85)
  %87 = getelementptr inbounds nuw %"class.ncnn::Pooling3D", ptr %5, i32 0, i32 20
  store i32 %86, ptr %87, align 4, !tbaa !48
  ret i32 0
}