; Function Attrs: mustprogress uwtable
define hidden noundef i32 @_ZN4ncnn9Pooling3D10load_paramERKNS_9ParamDictE(ptr noundef nonnull align 8 captures(none) dereferenceable(288) initializes((208, 288)) %0, ptr noundef nonnull align 8 dereferenceable(16) %1) unnamed_addr #2 align 2 {
  %3 = tail call noundef i32 @_ZNK4ncnn9ParamDict3getEii(ptr noundef nonnull align 8 dereferenceable(16) %1, i32 noundef 0, i32 noundef 0)
  %4 = getelementptr inbounds nuw i8, ptr %0, i64 208
  store i32 %3, ptr %4, align 8, !tbaa !4
  %5 = tail call noundef i32 @_ZNK4ncnn9ParamDict3getEii(ptr noundef nonnull align 8 dereferenceable(16) %1, i32 noundef 1, i32 noundef 0)
  %6 = getelementptr inbounds nuw i8, ptr %0, i64 212
  store i32 %5, ptr %6, align 4, !tbaa !26
  %7 = tail call noundef i32 @_ZNK4ncnn9ParamDict3getEii(ptr noundef nonnull align 8 dereferenceable(16) %1, i32 noundef 11, i32 noundef %5)
  %8 = getelementptr inbounds nuw i8, ptr %0, i64 216
  store i32 %7, ptr %8, align 8, !tbaa !27
  %9 = load i32, ptr %6, align 4, !tbaa !26
  %10 = tail call noundef i32 @_ZNK4ncnn9ParamDict3getEii(ptr noundef nonnull align 8 dereferenceable(16) %1, i32 noundef 21, i32 noundef %9)
  %11 = getelementptr inbounds nuw i8, ptr %0, i64 220
  store i32 %10, ptr %11, align 4, !tbaa !28
  %12 = tail call noundef i32 @_ZNK4ncnn9ParamDict3getEii(ptr noundef nonnull align 8 dereferenceable(16) %1, i32 noundef 2, i32 noundef 1)
  %13 = getelementptr inbounds nuw i8, ptr %0, i64 224
  store i32 %12, ptr %13, align 8, !tbaa !29
  %14 = tail call noundef i32 @_ZNK4ncnn9ParamDict3getEii(ptr noundef nonnull align 8 dereferenceable(16) %1, i32 noundef 12, i32 noundef %12)
  %15 = getelementptr inbounds nuw i8, ptr %0, i64 228
  store i32 %14, ptr %15, align 4, !tbaa !30
  %16 = load i32, ptr %13, align 8, !tbaa !29
  %17 = tail call noundef i32 @_ZNK4ncnn9ParamDict3getEii(ptr noundef nonnull align 8 dereferenceable(16) %1, i32 noundef 22, i32 noundef %16)
  %18 = getelementptr inbounds nuw i8, ptr %0, i64 232
  store i32 %17, ptr %18, align 8, !tbaa !31
  %19 = tail call noundef i32 @_ZNK4ncnn9ParamDict3getEii(ptr noundef nonnull align 8 dereferenceable(16) %1, i32 noundef 3, i32 noundef 0)
  %20 = getelementptr inbounds nuw i8, ptr %0, i64 236
  store i32 %19, ptr %20, align 4, !tbaa !32
  %21 = tail call noundef i32 @_ZNK4ncnn9ParamDict3getEii(ptr noundef nonnull align 8 dereferenceable(16) %1, i32 noundef 14, i32 noundef %19)
  %22 = getelementptr inbounds nuw i8, ptr %0, i64 240
  store i32 %21, ptr %22, align 8, !tbaa !33
  %23 = load i32, ptr %20, align 4, !tbaa !32
  %24 = tail call noundef i32 @_ZNK4ncnn9ParamDict3getEii(ptr noundef nonnull align 8 dereferenceable(16) %1, i32 noundef 13, i32 noundef %23)
  %25 = getelementptr inbounds nuw i8, ptr %0, i64 244
  store i32 %24, ptr %25, align 4, !tbaa !34
  %26 = tail call noundef i32 @_ZNK4ncnn9ParamDict3getEii(ptr noundef nonnull align 8 dereferenceable(16) %1, i32 noundef 15, i32 noundef %24)
  %27 = getelementptr inbounds nuw i8, ptr %0, i64 248
  store i32 %26, ptr %27, align 8, !tbaa !35
  %28 = load i32, ptr %20, align 4, !tbaa !32
  %29 = tail call noundef i32 @_ZNK4ncnn9ParamDict3getEii(ptr noundef nonnull align 8 dereferenceable(16) %1, i32 noundef 23, i32 noundef %28)
  %30 = getelementptr inbounds nuw i8, ptr %0, i64 252
  store i32 %29, ptr %30, align 4, !tbaa !36
  %31 = tail call noundef i32 @_ZNK4ncnn9ParamDict3getEii(ptr noundef nonnull align 8 dereferenceable(16) %1, i32 noundef 16, i32 noundef %29)
  %32 = getelementptr inbounds nuw i8, ptr %0, i64 256
  store i32 %31, ptr %32, align 8, !tbaa !37
  %33 = tail call noundef i32 @_ZNK4ncnn9ParamDict3getEii(ptr noundef nonnull align 8 dereferenceable(16) %1, i32 noundef 4, i32 noundef 0)
  %34 = getelementptr inbounds nuw i8, ptr %0, i64 260
  store i32 %33, ptr %34, align 4, !tbaa !38
  %35 = tail call noundef i32 @_ZNK4ncnn9ParamDict3getEii(ptr noundef nonnull align 8 dereferenceable(16) %1, i32 noundef 5, i32 noundef 0)
  %36 = getelementptr inbounds nuw i8, ptr %0, i64 264
  store i32 %35, ptr %36, align 8, !tbaa !39
  %37 = tail call noundef i32 @_ZNK4ncnn9ParamDict3getEii(ptr noundef nonnull align 8 dereferenceable(16) %1, i32 noundef 6, i32 noundef 0)
  %38 = getelementptr inbounds nuw i8, ptr %0, i64 268
  store i32 %37, ptr %38, align 4, !tbaa !40
  %39 = tail call noundef i32 @_ZNK4ncnn9ParamDict3getEii(ptr noundef nonnull align 8 dereferenceable(16) %1, i32 noundef 7, i32 noundef 0)
  %40 = getelementptr inbounds nuw i8, ptr %0, i64 272
  store i32 %39, ptr %40, align 8, !tbaa !41
  %41 = tail call noundef i32 @_ZNK4ncnn9ParamDict3getEii(ptr noundef nonnull align 8 dereferenceable(16) %1, i32 noundef 8, i32 noundef 0)
  %42 = getelementptr inbounds nuw i8, ptr %0, i64 276
  store i32 %41, ptr %42, align 4, !tbaa !42
  %43 = tail call noundef i32 @_ZNK4ncnn9ParamDict3getEii(ptr noundef nonnull align 8 dereferenceable(16) %1, i32 noundef 18, i32 noundef %41)
  %44 = getelementptr inbounds nuw i8, ptr %0, i64 280
  store i32 %43, ptr %44, align 8, !tbaa !43
  %45 = load i32, ptr %42, align 4, !tbaa !42
  %46 = tail call noundef i32 @_ZNK4ncnn9ParamDict3getEii(ptr noundef nonnull align 8 dereferenceable(16) %1, i32 noundef 28, i32 noundef %45)
  %47 = getelementptr inbounds nuw i8, ptr %0, i64 284
  store i32 %46, ptr %47, align 4, !tbaa !44
  ret i32 0
}